target datalayout = "e-m:e-p270:32:32-p271:32:32-p272:64:64-i64:64-i128:128-f80:128-n8:16:32:64-S128"
target triple = "x86_64-unknown-linux-gnu"

; Function Attrs: mustprogress nounwind uwtable
define noundef zeroext i1 @_ZN8facebook5velox6memory15MemoryAllocator16isAlignmentValidEmt(i64 noundef %allocateBytes, i16 noundef zeroext %alignmentBytes) #5 align 2 {
entry:
  %allocateBytes.addr = alloca i64, align 8
  %alignmentBytes.addr = alloca i16, align 2
  store i64 %allocateBytes, ptr %allocateBytes.addr, align 8
  store i16 %alignmentBytes, ptr %alignmentBytes.addr, align 2
  %0 = load i16, ptr %alignmentBytes.addr, align 2
  %conv = zext i16 %0 to i32
  %cmp = icmp eq i32 %conv, 16
  br i1 %cmp, label %lor.end, label %lor.rhs

lor.rhs:                                          ; preds = %entry
  %1 = load i16, ptr %alignmentBytes.addr, align 2
  %conv1 = zext i16 %1 to i32
  %cmp2 = icmp sge i32 %conv1, 16
  br i1 %cmp2, label %land.lhs.true, label %land.end

land.lhs.true:                                    ; preds = %lor.rhs
  %2 = load i16, ptr %alignmentBytes.addr, align 2
  %conv3 = zext i16 %2 to i32
  %cmp4 = icmp sle i32 %conv3, 64
  br i1 %cmp4, label %land.lhs.true5, label %land.end

land.lhs.true5:                                   ; preds = %land.lhs.true
  %3 = load i64, ptr %allocateBytes.addr, align 8
  %4 = load i16, ptr %alignmentBytes.addr, align 2
  %conv6 = zext i16 %4 to i64
  %rem = urem i64 %3, %conv6
  %cmp7 = icmp eq i64 %rem, 0
  br i1 %cmp7, label %land.rhs, label %land.end

land.rhs:                                         ; preds = %land.lhs.true5
  %5 = load i16, ptr %alignmentBytes.addr, align 2
  %conv8 = zext i16 %5 to i32
  %6 = load i16, ptr %alignmentBytes.addr, align 2
  %conv9 = zext i16 %6 to i32
  %sub = sub nsw i32 %conv9, 1
  %and = and i32 %conv8, %sub
  %cmp10 = icmp eq i32 %and, 0
  br label %land.end

land.end:                                         ; preds = %land.rhs, %land.lhs.true5, %land.lhs.true, %lor.rhs
  %7 = phi i1 [ false, %land.lhs.true5 ], [ false, %land.lhs.true ], [ false, %lor.rhs ], [ %cmp10, %land.rhs ]
  br label %lor.end

lor.end:                                          ; preds = %land.end, %entry
  %8 = phi i1 [ true, %entry ], [ %7, %land.end ]
  ret i1 %8
}