; Function Attrs: mustprogress nofree norecurse nosync nounwind willreturn memory(none) uwtable
define noundef zeroext i1 @_ZN8facebook5velox6memory15MemoryAllocator16isAlignmentValidEmt(i64 noundef %allocateBytes, i16 noundef zeroext %alignmentBytes) local_unnamed_addr #7 align 2 {
entry:
  %cmp = icmp eq i16 %alignmentBytes, 16
  br i1 %cmp, label %lor.end, label %lor.rhs

lor.rhs:                                          ; preds = %entry
  %0 = add i16 %alignmentBytes, -16
  %or.cond = icmp ult i16 %0, 49
  br i1 %or.cond, label %land.lhs.true5, label %lor.end

land.lhs.true5:                                   ; preds = %lor.rhs
  %conv6 = zext nneg i16 %alignmentBytes to i64
  %rem = urem i64 %allocateBytes, %conv6
  %cmp7 = icmp eq i64 %rem, 0
  br i1 %cmp7, label %land.rhs, label %lor.end

land.rhs:                                         ; preds = %land.lhs.true5
  %1 = add nuw nsw i16 %alignmentBytes, 127
  %2 = and i16 %1, %alignmentBytes
  %cmp10 = icmp eq i16 %2, 0
  br label %lor.end

lor.end:                                          ; preds = %lor.rhs, %land.lhs.true5, %land.rhs, %entry
  %3 = phi i1 [ true, %entry ], [ false, %land.lhs.true5 ], [ false, %lor.rhs ], [ %cmp10, %land.rhs ]
  ret i1 %3
}